; Function Attrs: mustprogress nounwind uwtable
define dso_local void @_ZN4llvm15ListeningSocketC2EiNS_9StringRefEPi(ptr noundef nonnull align 8 dereferenceable(48) %0, i32 noundef %1, ptr %2, i64 %3, ptr nocapture noundef readonly %4) unnamed_addr #0 align 2 {
  %6 = alloca %"struct.std::__cxx11::basic_string<char>::__sv_wrapper", align 8
  %7 = alloca %"class.std::allocator", align 1
  store i32 %1, ptr %0, align 8
  %8 = getelementptr inbounds nuw i8, ptr %0, i64 8
  call void @_ZNSaIcEC1Ev(ptr noundef nonnull align 1 dereferenceable(1) %7) #18
  call void @llvm.lifetime.start.p0(i64 16, ptr nonnull %6)
  %9 = call { i64, ptr } @_ZNSt7__cxx1112basic_stringIcSt11char_traitsIcESaIcEE17_S_to_string_viewESt17basic_string_viewIcS2_E(i64 %3, ptr %2) #18
  %10 = extractvalue { i64, ptr } %9, 0
  %11 = extractvalue { i64, ptr } %9, 1
  call void @_ZNSt7__cxx1112basic_stringIcSt11char_traitsIcESaIcEE12__sv_wrapperC1ESt17basic_string_viewIcS2_E(ptr noundef nonnull align 8 dereferenceable(16) %6, i64 %10, ptr %11) #18
  %12 = load i64, ptr %6, align 8
  %13 = getelementptr inbounds nuw i8, ptr %6, i64 8
  %14 = load ptr, ptr %13, align 8
  call void @_ZNSt7__cxx1112basic_stringIcSt11char_traitsIcESaIcEEC2ENS4_12__sv_wrapperERKS3_(ptr noundef nonnull align 8 dereferenceable(32) %8, i64 %12, ptr %14, ptr noundef nonnull align 1 dereferenceable(1) %7) #18
  call void @llvm.lifetime.end.p0(i64 16, ptr nonnull %6)
  call void @_ZNSaIcED1Ev(ptr noundef nonnull align 1 dereferenceable(1) %7) #18
  %15 = getelementptr inbounds nuw i8, ptr %0, i64 40
  %16 = load i32, ptr %4, align 4
  store i32 %16, ptr %15, align 8
  %17 = getelementptr inbounds i8, ptr %0, i64 44
  %18 = getelementptr inbounds i8, ptr %4, i64 4
  %19 = load i32, ptr %18, align 4
  store i32 %19, ptr %17, align 4
  ret void
}